target datalayout = "e-m:e-p270:32:32-p271:32:32-p272:64:64-i64:64-i128:128-f80:128-n8:16:32:64-S128"
target triple = "x86_64-pc-linux-gnu"

%struct.PJ_LP = type { double, double }
%struct.PJ_XY = type { double, double }

; Function Attrs: mustprogress uwtable
define internal { double, double } @_ZL17calcofi_s_forward5PJ_LPP8PJconsts(double %0, double %1, ptr noundef %2) #0 {
  %4 = alloca %struct.PJ_XY, align 8
  %5 = alloca %struct.PJ_LP, align 8
  %6 = alloca ptr, align 8
  %7 = alloca double, align 8
  %8 = alloca double, align 8
  %9 = alloca double, align 8
  %10 = alloca double, align 8
  %11 = alloca i32, align 4
  %12 = getelementptr inbounds nuw { double, double }, ptr %5, i32 0, i32 0
  store double %0, ptr %12, align 8
  %13 = getelementptr inbounds nuw { double, double }, ptr %5, i32 0, i32 1
  store double %1, ptr %13, align 8
  store ptr %2, ptr %6, align 8, !tbaa !3
  call void @llvm.memset.p0.i64(ptr align 8 %4, i8 0, i64 16, i1 false)
  call void @llvm.lifetime.start.p0(i64 8, ptr %7) #7
  call void @llvm.lifetime.start.p0(i64 8, ptr %8) #7
  call void @llvm.lifetime.start.p0(i64 8, ptr %9) #7
  call void @llvm.lifetime.start.p0(i64 8, ptr %10) #7
  %14 = getelementptr inbounds nuw %struct.PJ_LP, ptr %5, i32 0, i32 1
  %15 = load double, ptr %14, align 8, !tbaa !56
  %16 = call double @llvm.fabs.f64(double %15)
  %17 = fsub double %16, 0x3FF921FB54442D18
  %18 = call double @llvm.fabs.f64(double %17)
  %19 = fcmp ole double %18, 1.000000e-10
  br i1 %19, label %20, label %23

20:                                               ; preds = %3
  %21 = load ptr, ptr %6, align 8, !tbaa !3
  %22 = call i32 @proj_errno_set(ptr noundef %21, i32 noundef 2050)
  store i32 1, ptr %11, align 4
  br label %77

23:                                               ; preds = %3
  %24 = getelementptr inbounds nuw %struct.PJ_LP, ptr %5, i32 0, i32 0
  %25 = load double, ptr %24, align 8, !tbaa !59
  %26 = getelementptr inbounds nuw %struct.PJ_XY, ptr %4, i32 0, i32 0
  store double %25, ptr %26, align 8, !tbaa !51
  %27 = getelementptr inbounds nuw %struct.PJ_LP, ptr %5, i32 0, i32 1
  %28 = load double, ptr %27, align 8, !tbaa !56
  %29 = call double @llvm.fmuladd.f64(double 5.000000e-01, double %28, double 0x3FE921FB54442D18)
  %30 = call double @tan(double noundef %29) #7, !tbaa !53
  %31 = call double @log(double noundef %30) #7, !tbaa !53
  %32 = getelementptr inbounds nuw %struct.PJ_XY, ptr %4, i32 0, i32 1
  store double %31, ptr %32, align 8, !tbaa !55
  %33 = call double @tan(double noundef 0x3FF155A90270BAB2) #7, !tbaa !53
  %34 = call double @log(double noundef %33) #7, !tbaa !53
  store double %34, ptr %7, align 8, !tbaa !54
  %35 = getelementptr inbounds nuw %struct.PJ_XY, ptr %4, i32 0, i32 1
  %36 = load double, ptr %35, align 8, !tbaa !55
  %37 = load double, ptr %7, align 8, !tbaa !54
  %38 = fsub double %36, %37
  %39 = call double @tan(double noundef 0x3FE0C152382D7365) #7, !tbaa !53
  %40 = fmul double %38, %39
  store double %40, ptr %8, align 8, !tbaa !54
  %41 = getelementptr inbounds nuw %struct.PJ_XY, ptr %4, i32 0, i32 0
  %42 = load double, ptr %41, align 8, !tbaa !51
  %43 = fneg double %42
  %44 = load double, ptr %8, align 8, !tbaa !54
  %45 = fsub double %43, %44
  %46 = fadd double %45, 0xC000EA6D5AA2CB02
  store double %46, ptr %9, align 8, !tbaa !54
  %47 = load double, ptr %9, align 8, !tbaa !54
  %48 = call double @cos(double noundef 0x3FE0C152382D7365) #7, !tbaa !53
  %49 = fmul double %47, %48
  %50 = call double @sin(double noundef 0x3FE0C152382D7365) #7, !tbaa !53
  %51 = getelementptr inbounds nuw %struct.PJ_XY, ptr %4, i32 0, i32 1
  %52 = load double, ptr %51, align 8, !tbaa !55
  %53 = call double @llvm.fmuladd.f64(double %49, double %50, double %52)
  store double %53, ptr %10, align 8, !tbaa !54
  %54 = load double, ptr %10, align 8, !tbaa !54
  %55 = fneg double %54
  %56 = call double @exp(double noundef %55) #7, !tbaa !53
  %57 = call double @atan(double noundef %56) #7, !tbaa !53
  %58 = call double @llvm.fmuladd.f64(double -2.000000e+00, double %57, double 0x3FF921FB54442D18)
  store double %58, ptr %10, align 8, !tbaa !54
  %59 = load double, ptr %10, align 8, !tbaa !54
  %60 = fsub double %59, 0x3FE312AD613A9096
  %61 = fmul double 0x404CA5DC1A63C1F8, %60
  %62 = fmul double %61, 5.000000e+00
  %63 = call double @cos(double noundef 0x3FE0C152382D7365) #7, !tbaa !53
  %64 = fdiv double %62, %63
  %65 = fsub double 8.000000e+01, %64
  %66 = getelementptr inbounds nuw %struct.PJ_XY, ptr %4, i32 0, i32 0
  store double %65, ptr %66, align 8, !tbaa !51
  %67 = load double, ptr %10, align 8, !tbaa !54
  %68 = getelementptr inbounds nuw %struct.PJ_LP, ptr %5, i32 0, i32 1
  %69 = load double, ptr %68, align 8, !tbaa !56
  %70 = fsub double %67, %69
  %71 = fmul double 0x404CA5DC1A63C1F8, %70
  %72 = fmul double %71, 1.500000e+01
  %73 = call double @sin(double noundef 0x3FE0C152382D7365) #7, !tbaa !53
  %74 = fdiv double %72, %73
  %75 = fadd double 6.000000e+01, %74
  %76 = getelementptr inbounds nuw %struct.PJ_XY, ptr %4, i32 0, i32 1
  store double %75, ptr %76, align 8, !tbaa !55
  store i32 1, ptr %11, align 4
  br label %77

77:                                               ; preds = %23, %20
  call void @llvm.lifetime.end.p0(i64 8, ptr %10) #7
  call void @llvm.lifetime.end.p0(i64 8, ptr %9) #7
  call void @llvm.lifetime.end.p0(i64 8, ptr %8) #7
  call void @llvm.lifetime.end.p0(i64 8, ptr %7) #7
  %78 = load { double, double }, ptr %4, align 8
  ret { double, double } %78
}