; Function Attrs: mustprogress uwtable
define internal { double, double } @_ZL17calcofi_s_forward5PJ_LPP8PJconsts(double %0, double %1, ptr noundef %2) #0 {
  %4 = tail call double @llvm.fabs.f64(double %1)
  %5 = fadd double %4, 0xBFF921FB54442D18
  %6 = tail call double @llvm.fabs.f64(double %5)
  %7 = fcmp ugt double %6, 1.000000e-10
  br i1 %7, label %10, label %8

8:                                                ; preds = %3
  %9 = tail call i32 @proj_errno_set(ptr noundef %2, i32 noundef 2050)
  br label %35

10:                                               ; preds = %3
  %11 = tail call double @llvm.fmuladd.f64(double %1, double 5.000000e-01, double 0x3FE921FB54442D18)
  %12 = tail call double @tan(double noundef %11) #7, !tbaa !49
  %13 = tail call double @log(double noundef %12) #7, !tbaa !49
  %14 = fadd double %13, 0xBFE4506F7CB6F53A
  %15 = fmul double %14, 0x3FE279A74590331C
  %16 = fneg double %0
  %17 = fsub double %16, %15
  %18 = fadd double %17, 0xC000EA6D5AA2CB02
  %19 = fmul double %18, 0x3FEBB67AE8584CAB
  %20 = tail call double @llvm.fmuladd.f64(double %19, double 0x3FDFFFFFFFFFFFFF, double %13)
  %21 = fneg double %20
  %22 = tail call double @exp(double noundef %21) #7, !tbaa !49
  %23 = tail call double @atan(double noundef %22) #7, !tbaa !49
  %24 = tail call double @llvm.fmuladd.f64(double %23, double -2.000000e+00, double 0x3FF921FB54442D18)
  %25 = fadd double %24, 0xBFE312AD613A9096
  %26 = fmul double %25, 0x404CA5DC1A63C1F8
  %27 = fmul double %26, 5.000000e+00
  %28 = fdiv double %27, 0x3FEBB67AE8584CAB
  %29 = fsub double 8.000000e+01, %28
  %30 = fsub double %24, %1
  %31 = fmul double %30, 0x404CA5DC1A63C1F8
  %32 = fmul double %31, 1.500000e+01
  %33 = fdiv double %32, 0x3FDFFFFFFFFFFFFF
  %34 = fadd double %33, 6.000000e+01
  br label %35

35:                                               ; preds = %10, %8
  %.sroa.5.0 = phi double [ 0.000000e+00, %8 ], [ %34, %10 ]
  %.sroa.09.0 = phi double [ 0.000000e+00, %8 ], [ %29, %10 ]
  %.fca.0.insert = insertvalue { double, double } poison, double %.sroa.09.0, 0
  %.fca.1.insert = insertvalue { double, double } %.fca.0.insert, double %.sroa.5.0, 1
  ret { double, double } %.fca.1.insert
}